; Function Attrs: nounwind uwtable
define zeroext i8 @l_Lean_Compiler_LCNF_UnreachableBranches_Value_beq___lambda__1(ptr noundef %0, ptr noundef %1) local_unnamed_addr #1 {
  tail call void @lean_inc_heartbeat() #8
  %3 = tail call noalias ptr @mi_malloc_small(i64 noundef 32) #8
  %4 = icmp eq ptr %3, null
  br i1 %4, label %5, label %lean_alloc_closure.exit

5:                                                ; preds = %2
  tail call void @lean_internal_panic_out_of_memory() #7
  unreachable

lean_alloc_closure.exit:                          ; preds = %2
  %6 = getelementptr inbounds nuw i8, ptr %3, i64 4
  store i32 1, ptr %3, align 4, !tbaa !4
  store i32 -184549344, ptr %6, align 4
  %7 = getelementptr inbounds nuw i8, ptr %3, i64 8
  store ptr @l_Lean_Compiler_LCNF_UnreachableBranches_Value_beq___boxed, ptr %7, align 8, !tbaa !11
  %8 = getelementptr inbounds nuw i8, ptr %3, i64 16
  store i16 2, ptr %8, align 8, !tbaa !15
  %9 = getelementptr inbounds nuw i8, ptr %3, i64 18
  store i16 1, ptr %9, align 2, !tbaa !15
  %10 = getelementptr inbounds nuw i8, ptr %3, i64 24
  store ptr %1, ptr %10, align 8, !tbaa !11
  %11 = tail call zeroext i8 @l_List_any___rarg(ptr noundef %0, ptr noundef nonnull %3) #8
  ret i8 %11
}